ccopy_reg
_reconstructor
p0
(cgoogle.oauth2.credentials
Credentials
p1
c__builtin__
object
p2
Ntp3
Rp4
(dp5
S'_quota_project_id'
p6
NsS'_token_uri'
p7
Vhttps://oauth2.googleapis.com/token
p8
sS'_client_secret'
p9
Vp8JqognxUVn-LIu2XucoimPu
p10
sS'_id_token'
p11
NsS'token'
p12
Vya29.ImG9B3rrpVNwYLpJPsHxwLvIPRZyOVCR0BZJ6BK75ciFh78Z1fAxfJSEBVWnSuO7uhu2Un4Fdi6zvybHydRwd3rBhQ9y4-bXtI00qLCHVZfkw5SEuQfbRBXI1gVizBSCU_sJ
p13
sS'_refresh_token'
p14
V1/VNiNKhH-6YQf75ecPqJsNIhAlI6_6dMX81XWoCwcLxQ
p15
sS'_scopes'
p16
(lp17
S'https://www.googleapis.com/auth/spreadsheets'
p18
asS'_client_id'
p19
V783341049091-q5t3davdeh3ookqr4odo0kic3m4i55l4.apps.googleusercontent.com
p20
sS'expiry'
p21
cdatetime
datetime
p22
(S'\x07\xe4\x02\x0b\x17\x0b7\t6\xbd'
p23
tp24
Rp25
sb.